target datalayout = "e-m:e-p270:32:32-p271:32:32-p272:64:64-i64:64-i128:128-f80:128-n8:16:32:64-S128"
target triple = "x86_64-pc-linux-gnu"

; Function Attrs: nounwind uwtable
define internal void @VE8uv_C(ptr noundef %0) #0 {
  %2 = alloca ptr, align 8
  %3 = alloca i32, align 4
  store ptr %0, ptr %2, align 8, !tbaa !16
  call void @llvm.lifetime.start.p0(i64 4, ptr %3) #7
  store i32 0, ptr %3, align 4, !tbaa !9
  br label %4

4:                                                ; preds = %15, %1
  %5 = load i32, ptr %3, align 4, !tbaa !9
  %6 = icmp slt i32 %5, 8
  br i1 %6, label %7, label %18

7:                                                ; preds = %4
  %8 = load ptr, ptr %2, align 8, !tbaa !16
  %9 = load i32, ptr %3, align 4, !tbaa !9
  %10 = mul nsw i32 %9, 32
  %11 = sext i32 %10 to i64
  %12 = getelementptr inbounds i8, ptr %8, i64 %11
  %13 = load ptr, ptr %2, align 8, !tbaa !16
  %14 = getelementptr inbounds i8, ptr %13, i64 -32
  call void @llvm.memcpy.p0.p0.i64(ptr align 1 %12, ptr align 1 %14, i64 8, i1 false)
  br label %15

15:                                               ; preds = %7
  %16 = load i32, ptr %3, align 4, !tbaa !9
  %17 = add nsw i32 %16, 1
  store i32 %17, ptr %3, align 4, !tbaa !9
  br label %4, !llvm.loop !36

18:                                               ; preds = %4
  call void @llvm.lifetime.end.p0(i64 4, ptr %3) #7
  ret void
}