; Function Attrs: nofree norecurse nosync nounwind memory(argmem: readwrite) uwtable
define internal void @VE8uv_C(ptr noundef captures(none) %0) #3 {
  %2 = getelementptr inbounds i8, ptr %0, i64 -32
  %3 = load i64, ptr %2, align 1
  br label %4

4:                                                ; preds = %1, %4
  %indvars.iv = phi i64 [ 0, %1 ], [ %indvars.iv.next, %4 ]
  %5 = shl nuw nsw i64 %indvars.iv, 5
  %6 = getelementptr inbounds nuw i8, ptr %0, i64 %5
  store i64 %3, ptr %6, align 1
  %indvars.iv.next = add nuw nsw i64 %indvars.iv, 1
  %exitcond.not = icmp eq i64 %indvars.iv.next, 8
  br i1 %exitcond.not, label %7, label %4, !llvm.loop !38

7:                                                ; preds = %4
  ret void
}